; Function Attrs: mustprogress uwtable
define void @_ZN11ByteViewTab11tabInsertedEi(ptr noundef nonnull align 8 dereferenceable(65) %0, i32 noundef %1) unnamed_addr #0 align 2 {
  %3 = tail call noundef i32 @_ZNK10QTabWidget5countEv(ptr noundef nonnull align 8 dereferenceable(40) %0)
  %4 = icmp sgt i32 %3, 1
  %5 = tail call noundef ptr @_ZNK10QTabWidget6tabBarEv(ptr noundef nonnull align 8 dereferenceable(40) %0)
  br i1 %4, label %6, label %7

6:                                                ; preds = %2
  tail call void @_ZN7QWidget4showEv(ptr noundef nonnull align 8 dereferenceable(40) %5)
  br label %_ZN11ByteViewTab14setTabsVisibleEv.exit

7:                                                ; preds = %2
  tail call void @_ZN7QWidget4hideEv(ptr noundef nonnull align 8 dereferenceable(40) %5)
  br label %_ZN11ByteViewTab14setTabsVisibleEv.exit

_ZN11ByteViewTab14setTabsVisibleEv.exit:          ; preds = %6, %7
  tail call void @_ZN10QTabWidget11tabInsertedEi(ptr noundef nonnull align 8 dereferenceable(40) %0, i32 noundef %1)
  ret void
}